target datalayout = "e-m:e-p270:32:32-p271:32:32-p272:64:64-i64:64-i128:128-f80:128-n8:16:32:64-S128"
target triple = "x86_64-pc-linux-gnu"

@hf_swils_zone_status = internal global i32 0, align 4
@hf_swils_zone_reason = internal global i32 0, align 4
@hf_swils_zone_vendor_unique = internal global i32 0, align 4

; Function Attrs: nounwind uwtable
define internal void @dissect_swils_ufc(ptr noundef %0, ptr noundef %1, ptr noundef %2, i8 noundef zeroext %3) #0 {
  %5 = alloca ptr, align 8
  %6 = alloca ptr, align 8
  %7 = alloca ptr, align 8
  %8 = alloca i8, align 1
  %9 = alloca i32, align 4
  store ptr %0, ptr %5, align 8
  store ptr %1, ptr %6, align 8
  store ptr %2, ptr %7, align 8
  store i8 %3, ptr %8, align 1
  store i32 0, ptr %9, align 4
  %10 = load ptr, ptr %7, align 8
  %11 = icmp ne ptr %10, null
  br i1 %11, label %12, label %35

12:                                               ; preds = %4
  %13 = load i8, ptr %8, align 1
  %14 = icmp ne i8 %13, 0
  br i1 %14, label %34, label %15

15:                                               ; preds = %12
  %16 = load ptr, ptr %7, align 8
  %17 = load i32, ptr @hf_swils_zone_status, align 4
  %18 = load ptr, ptr %5, align 8
  %19 = load i32, ptr %9, align 4
  %20 = add i32 %19, 5
  %21 = call ptr @proto_tree_add_item(ptr noundef %16, i32 noundef %17, ptr noundef %18, i32 noundef %20, i32 noundef 1, i32 noundef 0)
  %22 = load ptr, ptr %7, align 8
  %23 = load i32, ptr @hf_swils_zone_reason, align 4
  %24 = load ptr, ptr %5, align 8
  %25 = load i32, ptr %9, align 4
  %26 = add i32 %25, 6
  %27 = call ptr @proto_tree_add_item(ptr noundef %22, i32 noundef %23, ptr noundef %24, i32 noundef %26, i32 noundef 1, i32 noundef 0)
  %28 = load ptr, ptr %7, align 8
  %29 = load i32, ptr @hf_swils_zone_vendor_unique, align 4
  %30 = load ptr, ptr %5, align 8
  %31 = load i32, ptr %9, align 4
  %32 = add i32 %31, 7
  %33 = call ptr @proto_tree_add_item(ptr noundef %28, i32 noundef %29, ptr noundef %30, i32 noundef %32, i32 noundef 1, i32 noundef 0)
  br label %34

34:                                               ; preds = %15, %12
  br label %35

35:                                               ; preds = %34, %4
  ret void
}